Certificate:
    Data:
        Version: 3 (0x2)
        Serial Number: 1 (0x1)
        Signature Algorithm: sha256WithRSAEncryption
        Issuer: C=BA, ST=RS, L=Banja Luka, O=Elektrotehnicki fakultet, OU=CA_MarkoRadusinovic, CN=ROOT_CA
        Validity
            Not Before: Jan 13 13:35:22 2022 GMT
            Not After : Jan 11 13:35:22 2032 GMT
        Subject: C=BA, ST=RS, O=Elektrotehnicki fakultet, OU=CA_MarkoRadusinovic, CN=SUB_CA_1
        Subject Public Key Info:
            Public Key Algorithm: rsaEncryption
                RSA Public-Key: (4096 bit)
                Modulus:
                    00:b1:61:ce:cd:46:8a:67:0b:a8:42:7b:29:56:a7:
                    22:c3:c8:99:87:e7:b5:54:60:10:5a:7f:bf:47:10:
                    e2:d8:e3:2d:ee:74:33:55:9e:c0:39:dc:13:91:e0:
                    be:83:05:f5:d6:b5:87:be:c4:07:81:86:64:ee:07:
                    0d:e0:be:49:a6:47:80:07:ed:c6:69:00:2b:c9:b6:
                    b8:2f:62:72:72:ab:e4:b4:81:ed:d1:53:1d:6f:f2:
                    be:62:38:c0:53:f8:10:27:74:c0:c4:ea:58:86:f1:
                    0b:d7:1e:1c:81:f6:83:aa:af:5a:2c:d7:90:96:b1:
                    84:8b:42:5a:ca:37:b4:4c:ca:6f:9f:bc:fb:53:94:
                    6a:f8:9a:ab:74:5a:2e:91:e4:41:50:52:b9:15:bd:
                    65:d8:68:f4:4c:e6:41:bc:8b:b5:d7:02:c8:a5:bd:
                    d1:82:ae:52:14:0d:3c:c5:c4:4c:ce:00:b2:51:28:
                    75:49:a7:e9:c8:38:88:6d:77:3e:8b:3f:04:95:74:
                    f3:f6:98:40:9e:9a:5f:85:73:16:76:75:93:e6:ca:
                    dd:70:f2:21:0b:35:a1:cc:c2:77:a6:c4:3c:ac:f6:
                    d5:66:11:ce:9e:9c:bc:b2:86:75:94:8c:24:3c:37:
                    18:bc:d1:b1:53:cb:b9:32:40:de:f3:06:c9:10:01:
                    60:3c:d8:d5:83:81:aa:6d:bc:c2:01:04:76:bf:61:
                    c0:73:95:da:67:b4:fe:91:9c:fa:58:b5:68:10:8b:
                    a0:30:7a:65:5b:9a:7e:dc:e5:7f:29:33:91:a2:80:
                    55:b0:28:13:b8:52:c4:a0:d4:f7:c0:69:a5:70:3c:
                    2c:27:94:7c:04:0d:a8:c0:f3:2e:f9:db:9c:9a:10:
                    88:c8:5b:6a:84:92:aa:0f:a8:6d:a7:e7:62:02:82:
                    2d:48:4d:92:fc:f3:2a:14:9b:f6:2b:f2:9c:40:bc:
                    bf:7e:39:0d:7a:f3:61:90:24:e3:ae:59:f4:b4:6a:
                    68:22:82:f1:37:0a:e9:77:e2:28:bf:9c:47:5d:35:
                    8a:0b:6a:1a:bc:98:dd:16:60:ae:fc:5e:f3:f4:50:
                    89:a4:32:1e:6b:cf:ec:ec:31:3f:eb:12:df:93:c9:
                    c5:2f:09:ea:87:35:11:32:c5:22:a3:77:3f:25:0e:
                    6a:20:6f:91:08:5b:7f:4f:36:67:40:39:2f:c9:6a:
                    f7:83:e4:8c:10:78:22:0f:b1:41:79:2b:37:38:16:
                    9c:44:60:41:a1:a1:d0:83:a8:72:62:1e:53:f5:b5:
                    bb:f8:fb:8c:41:e6:61:f1:0f:dd:85:2e:15:5b:bc:
                    b8:96:91:27:6e:3e:08:b6:6d:bc:1d:84:95:35:98:
                    90:1e:d7
                Exponent: 65537 (0x10001)
        X509v3 extensions:
            X509v3 Subject Key Identifier: 
                EF:16:6C:58:7D:0B:69:70:6E:9E:26:47:15:2F:9D:8A:13:38:5F:7E
            X509v3 Authority Key Identifier: 
                keyid:F8:AD:61:C4:92:8C:47:8F:99:5D:10:5F:AA:B4:C8:50:A3:C4:97:E1

            X509v3 Basic Constraints: 
                CA:TRUE, pathlen:0
            X509v3 Key Usage: 
                Digital Signature, Certificate Sign, CRL Sign
    Signature Algorithm: sha256WithRSAEncryption
         2b:96:cc:14:8b:8a:ad:9d:44:8a:9b:f0:b5:e4:93:42:c5:39:
         fb:32:d6:fa:c3:5d:e4:a5:f1:1b:0a:b8:f2:8d:f4:b9:4b:80:
         39:85:d5:b3:00:89:ef:7a:27:1f:23:0e:37:8a:40:66:b7:03:
         42:26:0f:24:6c:a2:18:9a:5a:5d:37:07:64:c5:3f:37:ab:05:
         9d:14:d3:6e:44:c8:5c:ae:28:28:06:f7:5d:94:7f:9c:e5:10:
         16:76:2f:24:4f:22:ee:22:95:14:46:f8:c8:38:7e:17:19:94:
         ce:1f:0b:1d:8c:d1:dd:e9:b5:fd:f7:e6:c7:d0:c7:03:e3:68:
         5a:a1:ae:38:dd:fa:12:a4:14:e3:f9:61:aa:95:17:6e:1d:10:
         a8:0f:c5:b0:e6:f9:3e:06:b5:cd:68:aa:75:3c:57:fd:4d:cd:
         0e:6a:48:38:27:44:45:86:68:e8:fe:a7:ae:8d:ca:aa:e1:27:
         60:d4:b4:8b:26:40:75:35:c0:47:f9:3f:07:1a:25:94:59:03:
         0a:fa:49:0c:4e:f9:17:6f:e2:8c:42:c2:2c:0f:5b:24:9a:1c:
         6f:55:d6:ad:36:87:8b:05:16:ea:79:53:e8:5c:4c:19:7c:ea:
         7a:2a:d0:10:1d:d9:ae:e1:88:e9:f5:4a:9e:b1:a8:3c:dc:02:
         9c:9d:52:7b:19:1a:92:3a:8c:d2:7e:39:d6:ae:d8:e1:4f:a2:
         3c:8b:78:7b:4a:d5:d9:23:3a:0c:a2:e6:34:9a:96:a9:0c:0c:
         e4:df:52:5d:4b:d9:1d:85:53:12:e2:5e:4f:3c:b7:dc:27:e9:
         31:94:0a:6b:18:b9:5d:3c:4d:8c:ee:2b:59:78:3d:44:21:36:
         d4:ca:a6:9b:73:ff:6b:fe:b5:17:a1:30:6f:de:9d:2d:8f:da:
         1e:b1:23:ff:1a:50:f7:6c:03:70:92:12:9b:29:39:99:36:63:
         91:5f:32:0f:06:e3:c0:d3:f3:85:0d:44:94:9a:12:4f:53:3c:
         0b:fe:29:f7:ec:ce:ae:c5:e6:ae:80:c7:2a:3e:a4:be:2d:88:
         6a:f6:cb:fa:53:a0:d7:e5:3d:b3:2b:a3:1d:97:be:f5:b5:ab:
         1c:0a:3a:f9:c7:63:cd:bd:06:ec:dc:89:fc:c9:23:f7:31:55:
         78:72:5f:9c:35:05:22:ae:b8:7a:e6:f1:a8:62:58:b7:2c:8e:
         98:9e:de:49:77:fc:ea:bf:6f:9c:d6:a9:0c:40:e4:7b:90:c5:
         4b:59:e8:81:eb:ee:7c:5b:b3:07:13:6c:f7:0a:10:11:a6:de:
         9f:e6:ef:1b:42:63:73:5b:54:b1:f0:f2:2d:d8:83:19:a7:d1:
         8e:7e:75:8d:8b:e1:f4:9b
-----BEGIN CERTIFICATE-----
MIIFzDCCA7SgAwIBAgIBATANBgkqhkiG9w0BAQsFADCBgjELMAkGA1UEBhMCQkEx
CzAJBgNVBAgTAlJTMRMwEQYDVQQHEwpCYW5qYSBMdWthMSEwHwYDVQQKExhFbGVr
dHJvdGVobmlja2kgZmFrdWx0ZXQxHDAaBgNVBAsUE0NBX01hcmtvUmFkdXNpbm92
aWMxEDAOBgNVBAMUB1JPT1RfQ0EwHhcNMjIwMTEzMTMzNTIyWhcNMzIwMTExMTMz
NTIyWjBuMQswCQYDVQQGEwJCQTELMAkGA1UECBMCUlMxITAfBgNVBAoTGEVsZWt0
cm90ZWhuaWNraSBmYWt1bHRldDEcMBoGA1UECxQTQ0FfTWFya29SYWR1c2lub3Zp
YzERMA8GA1UEAxQIU1VCX0NBXzEwggIiMA0GCSqGSIb3DQEBAQUAA4ICDwAwggIK
AoICAQCxYc7NRopnC6hCeylWpyLDyJmH57VUYBBaf79HEOLY4y3udDNVnsA53BOR
4L6DBfXWtYe+xAeBhmTuBw3gvkmmR4AH7cZpACvJtrgvYnJyq+S0ge3RUx1v8r5i
OMBT+BAndMDE6liG8QvXHhyB9oOqr1os15CWsYSLQlrKN7RMym+fvPtTlGr4mqt0
Wi6R5EFQUrkVvWXYaPRM5kG8i7XXAsilvdGCrlIUDTzFxEzOALJRKHVJp+nIOIht
dz6LPwSVdPP2mECeml+FcxZ2dZPmyt1w8iELNaHMwnemxDys9tVmEc6enLyyhnWU
jCQ8Nxi80bFTy7kyQN7zBskQAWA82NWDgaptvMIBBHa/YcBzldpntP6RnPpYtWgQ
i6AwemVbmn7c5X8pM5GigFWwKBO4UsSg1PfAaaVwPCwnlHwEDajA8y7525yaEIjI
W2qEkqoPqG2n52ICgi1ITZL88yoUm/Yr8pxAvL9+OQ1682GQJOOuWfS0amgigvE3
Cul34ii/nEddNYoLahq8mN0WYK78XvP0UImkMh5rz+zsMT/rEt+TycUvCeqHNREy
xSKjdz8lDmogb5EIW39PNmdAOS/JaveD5IwQeCIPsUF5Kzc4FpxEYEGhodCDqHJi
HlP1tbv4+4xB5mHxD92FLhVbvLiWkSduPgi2bbwdhJU1mJAe1wIDAQABo2AwXjAd
BgNVHQ4EFgQU7xZsWH0LaXBuniZHFS+dihM4X34wHwYDVR0jBBgwFoAU+K1hxJKM
R4+ZXRBfqrTIUKPEl+EwDwYDVR0TBAgwBgEB/wIBADALBgNVHQ8EBAMCAYYwDQYJ
KoZIhvcNAQELBQADggIBACuWzBSLiq2dRIqb8LXkk0LFOfsy1vrDXeSl8RsKuPKN
9LlLgDmF1bMAie96Jx8jDjeKQGa3A0ImDyRsohiaWl03B2TFPzerBZ0U025EyFyu
KCgG912Uf5zlEBZ2LyRPIu4ilRRG+Mg4fhcZlM4fCx2M0d3ptf335sfQxwPjaFqh
rjjd+hKkFOP5YaqVF24dEKgPxbDm+T4Gtc1oqnU8V/1NzQ5qSDgnREWGaOj+p66N
yqrhJ2DUtIsmQHU1wEf5PwcaJZRZAwr6SQxO+Rdv4oxCwiwPWySaHG9V1q02h4sF
Fup5U+hcTBl86noq0BAd2a7hiOn1Sp6xqDzcApydUnsZGpI6jNJ+Odau2OFPojyL
eHtK1dkjOgyi5jSalqkMDOTfUl1L2R2FUxLiXk88t9wn6TGUCmsYuV08TYzuK1l4
PUQhNtTKpptz/2v+tRehMG/enS2P2h6xI/8aUPdsA3CSEpspOZk2Y5FfMg8G48DT
84UNRJSaEk9TPAv+Kffszq7F5q6Axyo+pL4tiGr2y/pToNflPbMrox2XvvW1qxwK
OvnHY829BuzcifzJI/cxVXhyX5w1BSKuuHrm8ahiWLcsjpie3kl3/Oq/b5zWqQxA
5HuQxUtZ6IHr7nxbswcTbPcKEBGm3p/m7xtCY3NbVLHw8i3Ygxmn0Y5+dY2L4fSb
-----END CERTIFICATE-----
