Certificate:
    Data:
        Version: 3 (0x2)
        Serial Number: 2 (0x2)
        Signature Algorithm: sha256WithRSAEncryption
        Issuer: C=BA, ST=RS, L=Banja Luka, O=Elektrotehnicki fakultet, OU=CA_MarkoRadusinovic, CN=ROOT_CA
        Validity
            Not Before: Jan 13 13:41:26 2022 GMT
            Not After : Jan 11 13:41:26 2032 GMT
        Subject: C=BA, ST=RS, O=Elektrotehnicki fakultet, OU=CA_MarkoRadusinovic, CN=SUB_CA_2
        Subject Public Key Info:
            Public Key Algorithm: rsaEncryption
                RSA Public-Key: (4096 bit)
                Modulus:
                    00:c0:64:29:46:8b:36:df:4f:4a:8f:93:ae:ab:92:
                    d4:3a:87:2e:d8:f5:9b:4d:86:08:76:4b:10:9f:91:
                    f9:4f:e8:1b:8e:6b:c7:39:ee:67:e4:43:ca:27:3b:
                    69:80:6d:0e:17:2f:fb:88:ec:8e:5c:6e:6c:61:79:
                    b3:11:f2:ed:67:d4:dd:bc:50:3a:2a:fe:c5:c9:34:
                    76:f3:31:fd:58:3b:8a:c0:bd:8a:7c:c4:c7:c2:7b:
                    84:68:1b:14:00:92:0e:96:e7:26:07:5d:c9:60:ba:
                    28:17:ef:55:21:23:21:8c:7f:a8:9b:6f:2d:16:78:
                    71:7e:68:99:0c:56:eb:64:3d:c7:33:b1:c2:e7:46:
                    cf:31:60:65:92:6b:a0:df:56:d9:63:46:56:26:14:
                    82:c7:cf:0c:ef:15:8f:c8:b8:80:a5:a6:8d:ca:be:
                    5b:71:f6:85:c4:a2:cb:2b:d4:68:55:b1:af:f2:13:
                    fb:5e:6b:57:60:29:f0:00:26:1b:76:7f:22:9e:1a:
                    18:51:7e:b3:51:67:5e:04:3d:5d:2c:e0:be:7b:91:
                    65:6b:6b:34:9a:d4:58:f5:64:91:46:8a:4e:54:b4:
                    ac:9b:1b:ed:21:ce:7a:e7:4a:f4:80:f4:ef:af:09:
                    49:ec:50:ae:48:d3:38:11:0c:a1:5d:82:8b:d0:0e:
                    e6:4b:bf:07:67:ff:87:5a:c0:c7:c5:9a:b4:ca:41:
                    4c:4b:4e:0b:be:b1:9b:37:0f:61:cf:70:0a:63:2f:
                    99:55:cb:a8:74:a5:9e:72:6d:2c:87:a8:27:da:e5:
                    b1:88:75:3b:fb:41:70:7b:7e:22:c8:82:08:03:38:
                    be:19:1c:e3:d0:14:75:7c:59:99:9d:eb:46:36:99:
                    29:49:8b:ca:68:ec:cf:d1:42:be:b2:a8:a8:6d:1a:
                    7b:97:6e:8e:bf:55:19:db:a6:db:9a:83:4b:21:6c:
                    aa:d1:6a:6b:d9:42:fb:1a:94:eb:61:f5:6d:62:7d:
                    f3:5e:81:58:b8:7d:0b:ad:70:82:42:9c:dd:e1:e8:
                    e5:3e:d6:fa:a1:69:fb:ff:76:49:9b:32:23:81:c9:
                    a4:05:b2:7b:8e:98:b0:d7:60:8b:45:48:73:a9:22:
                    cd:0e:8c:04:98:fa:3a:2a:90:8a:bd:c1:ca:f2:9d:
                    ac:b3:39:30:67:bb:54:46:fa:94:c8:20:ed:67:a2:
                    8b:7a:6e:43:35:ad:be:94:e3:24:b0:d7:0b:8c:27:
                    d6:6f:d8:a5:5e:93:fc:9b:28:9e:78:0a:78:7d:2c:
                    3c:d4:2d:78:d3:f1:07:87:7c:0a:bb:9f:2c:4b:29:
                    3f:dd:74:e2:12:2e:cc:b1:d1:93:11:5c:c6:cb:86:
                    8e:3f:67
                Exponent: 65537 (0x10001)
        X509v3 extensions:
            X509v3 Subject Key Identifier: 
                70:24:C6:3A:12:EF:DA:03:8B:BF:03:98:EF:34:24:08:52:27:6C:5D
            X509v3 Authority Key Identifier: 
                keyid:F8:AD:61:C4:92:8C:47:8F:99:5D:10:5F:AA:B4:C8:50:A3:C4:97:E1

            X509v3 Basic Constraints: 
                CA:TRUE, pathlen:0
            X509v3 Key Usage: 
                Digital Signature, Certificate Sign, CRL Sign
    Signature Algorithm: sha256WithRSAEncryption
         a6:83:a9:95:4d:e3:4b:57:01:b5:4e:90:ca:34:60:cc:95:7b:
         42:95:8f:23:95:88:ed:c2:6b:fd:16:dc:63:72:9a:37:bf:68:
         b0:f7:88:b3:b0:a7:76:d7:d1:dd:cc:d3:fc:3c:3f:7b:63:a7:
         a6:2c:0c:f8:f8:b3:72:ff:8d:e8:27:ad:e5:04:be:29:49:30:
         36:3c:97:7b:a4:c7:9a:e7:77:73:86:dc:e1:c6:1f:bb:ab:26:
         43:d2:0a:35:0e:01:62:b5:e0:f8:6e:70:30:96:e3:3f:51:87:
         29:af:cc:0e:72:5a:59:91:ae:0f:e1:d7:b4:f4:a7:0a:6b:ac:
         61:04:d5:c3:cb:e3:a2:ef:19:a5:fe:a6:77:ce:98:81:73:eb:
         3f:1d:9b:4a:6c:9b:bc:64:8d:1a:3a:54:44:38:cb:e7:32:74:
         d3:42:01:17:ee:bb:61:4e:ec:82:34:92:51:76:ed:af:32:d4:
         e6:0b:c4:d8:80:97:5a:2d:5c:6b:ac:b2:3b:66:3f:e6:a1:93:
         b4:80:5a:36:02:4c:83:e9:cb:40:5b:a7:40:ae:40:2c:21:9e:
         08:8e:8f:2c:6c:61:cf:a7:a3:c4:d3:23:aa:ce:98:ad:54:f2:
         3c:39:15:32:d4:db:eb:28:f7:75:db:f7:a3:de:65:35:bf:6e:
         41:9c:02:0e:04:01:43:22:c3:73:91:02:48:0f:5f:45:ae:dd:
         c3:08:5d:b3:d9:4b:3a:61:be:96:2c:5c:5e:31:69:58:f0:74:
         45:56:2f:ec:49:f3:af:4c:08:ab:90:21:f8:1f:f4:93:e0:9e:
         f9:45:c8:e5:9f:12:42:e0:72:c5:d2:18:ed:be:96:c6:43:a4:
         a7:6f:67:3a:71:3b:13:f5:cc:2e:5c:ae:a8:67:43:2c:3f:61:
         e4:02:a5:e9:19:24:8b:02:90:bd:03:f7:95:18:59:00:33:ae:
         0b:ef:19:28:50:b2:d6:5d:0e:63:af:c9:aa:cb:ca:42:b4:3d:
         31:4e:a6:45:25:37:12:72:0f:90:9c:b3:5c:d0:a5:30:e9:a9:
         0d:53:9e:10:fa:b4:24:5e:db:f9:fe:d6:e7:3a:68:39:d2:11:
         b9:3c:db:73:8f:c6:7a:b6:95:fd:4e:4c:f6:23:bc:36:e4:6e:
         88:58:79:89:4f:d3:00:b5:73:c5:fb:6a:3c:6f:a8:9c:d0:20:
         83:04:d8:e6:92:c2:d3:d7:b6:7c:d8:47:7a:9e:85:2b:cf:ef:
         f7:1d:76:00:c1:86:bc:b4:6e:52:ee:20:9a:0c:e8:80:04:88:
         c2:a6:94:6a:4c:68:c9:ae:b2:ac:c0:0f:da:d1:4c:e1:3e:e0:
         e6:ba:2c:f7:52:aa:fd:5f
-----BEGIN CERTIFICATE-----
MIIFzDCCA7SgAwIBAgIBAjANBgkqhkiG9w0BAQsFADCBgjELMAkGA1UEBhMCQkEx
CzAJBgNVBAgTAlJTMRMwEQYDVQQHEwpCYW5qYSBMdWthMSEwHwYDVQQKExhFbGVr
dHJvdGVobmlja2kgZmFrdWx0ZXQxHDAaBgNVBAsUE0NBX01hcmtvUmFkdXNpbm92
aWMxEDAOBgNVBAMUB1JPT1RfQ0EwHhcNMjIwMTEzMTM0MTI2WhcNMzIwMTExMTM0
MTI2WjBuMQswCQYDVQQGEwJCQTELMAkGA1UECBMCUlMxITAfBgNVBAoTGEVsZWt0
cm90ZWhuaWNraSBmYWt1bHRldDEcMBoGA1UECxQTQ0FfTWFya29SYWR1c2lub3Zp
YzERMA8GA1UEAxQIU1VCX0NBXzIwggIiMA0GCSqGSIb3DQEBAQUAA4ICDwAwggIK
AoICAQDAZClGizbfT0qPk66rktQ6hy7Y9ZtNhgh2SxCfkflP6BuOa8c57mfkQ8on
O2mAbQ4XL/uI7I5cbmxhebMR8u1n1N28UDoq/sXJNHbzMf1YO4rAvYp8xMfCe4Ro
GxQAkg6W5yYHXclguigX71UhIyGMf6ibby0WeHF+aJkMVutkPcczscLnRs8xYGWS
a6DfVtljRlYmFILHzwzvFY/IuIClpo3Kvltx9oXEossr1GhVsa/yE/tea1dgKfAA
Jht2fyKeGhhRfrNRZ14EPV0s4L57kWVrazSa1Fj1ZJFGik5UtKybG+0hznrnSvSA
9O+vCUnsUK5I0zgRDKFdgovQDuZLvwdn/4dawMfFmrTKQUxLTgu+sZs3D2HPcApj
L5lVy6h0pZ5ybSyHqCfa5bGIdTv7QXB7fiLIgggDOL4ZHOPQFHV8WZmd60Y2mSlJ
i8po7M/RQr6yqKhtGnuXbo6/VRnbptuag0shbKrRamvZQvsalOth9W1iffNegVi4
fQutcIJCnN3h6OU+1vqhafv/dkmbMiOByaQFsnuOmLDXYItFSHOpIs0OjASY+joq
kIq9wcrynayzOTBnu1RG+pTIIO1noot6bkM1rb6U4ySw1wuMJ9Zv2KVek/ybKJ54
Cnh9LDzULXjT8QeHfAq7nyxLKT/ddOISLsyx0ZMRXMbLho4/ZwIDAQABo2AwXjAd
BgNVHQ4EFgQUcCTGOhLv2gOLvwOY7zQkCFInbF0wHwYDVR0jBBgwFoAU+K1hxJKM
R4+ZXRBfqrTIUKPEl+EwDwYDVR0TBAgwBgEB/wIBADALBgNVHQ8EBAMCAYYwDQYJ
KoZIhvcNAQELBQADggIBAKaDqZVN40tXAbVOkMo0YMyVe0KVjyOViO3Ca/0W3GNy
mje/aLD3iLOwp3bX0d3M0/w8P3tjp6YsDPj4s3L/jegnreUEvilJMDY8l3ukx5rn
d3OG3OHGH7urJkPSCjUOAWK14PhucDCW4z9RhymvzA5yWlmRrg/h17T0pwprrGEE
1cPL46LvGaX+pnfOmIFz6z8dm0psm7xkjRo6VEQ4y+cydNNCARfuu2FO7II0klF2
7a8y1OYLxNiAl1otXGussjtmP+ahk7SAWjYCTIPpy0Bbp0CuQCwhngiOjyxsYc+n
o8TTI6rOmK1U8jw5FTLU2+so93Xb96PeZTW/bkGcAg4EAUMiw3ORAkgPX0Wu3cMI
XbPZSzphvpYsXF4xaVjwdEVWL+xJ869MCKuQIfgf9JPgnvlFyOWfEkLgcsXSGO2+
lsZDpKdvZzpxOxP1zC5crqhnQyw/YeQCpekZJIsCkL0D95UYWQAzrgvvGShQstZd
DmOvyarLykK0PTFOpkUlNxJyD5Ccs1zQpTDpqQ1TnhD6tCRe2/n+1uc6aDnSEbk8
23OPxnq2lf1OTPYjvDbkbohYeYlP0wC1c8X7ajxvqJzQIIME2OaSwtPXtnzYR3qe
hSvP7/cddgDBhry0blLuIJoM6IAEiMKmlGpMaMmusqzAD9rRTOE+4Oa6LPdSqv1f
-----END CERTIFICATE-----
